target datalayout = "e-m:e-p270:32:32-p271:32:32-p272:64:64-i64:64-i128:128-f80:128-n8:16:32:64-S128"
target triple = "x86_64-unknown-linux-gnu"

%"struct.cvc5::internal::Minisat::Lit" = type { i32 }
%"class.cvc5::internal::Minisat::vec.5" = type { ptr, i32, i32 }
%"class.cvc5::internal::Minisat::Clause" = type { %struct.anon, [0 x %union.anon.273] }
%struct.anon = type { i64 }
%union.anon.273 = type { %"struct.cvc5::internal::Minisat::Lit" }

@_ZTIN4cvc58internal7Minisat20OutOfMemoryExceptionE = linkonce_odr hidden constant { ptr, ptr } { ptr getelementptr inbounds (ptr, ptr @_ZTVN10__cxxabiv117__class_type_infoE, i64 2), ptr @_ZTSN4cvc58internal7Minisat20OutOfMemoryExceptionE }, comdat, align 8

; Function Attrs: mustprogress nounwind uwtable
define linkonce_odr hidden noundef i32 @_ZN4cvc58internal7Minisat3vecIjE4imaxEii(i32 noundef %x, i32 noundef %y) #4 comdat align 2 {
entry:
  %x.addr = alloca i32, align 4
  %y.addr = alloca i32, align 4
  %mask = alloca i32, align 4
  store i32 %x, ptr %x.addr, align 4
  store i32 %y, ptr %y.addr, align 4
  %0 = load i32, ptr %y.addr, align 4
  %1 = load i32, ptr %x.addr, align 4
  %sub = sub nsw i32 %0, %1
  %shr = ashr i32 %sub, 31
  store i32 %shr, ptr %mask, align 4
  %2 = load i32, ptr %x.addr, align 4
  %3 = load i32, ptr %mask, align 4
  %and = and i32 %2, %3
  %4 = load i32, ptr %y.addr, align 4
  %5 = load i32, ptr %mask, align 4
  %not = xor i32 %5, -1
  %and1 = and i32 %4, %not
  %add = add nsw i32 %and, %and1
  ret i32 %add
}

; Function Attrs: mustprogress uwtable
define linkonce_odr hidden void @_ZN4cvc58internal7Minisat3vecIjE8capacityEi(ptr noundef nonnull align 8 dereferenceable(16) %this, i32 noundef %min_cap) #5 comdat align 2 {
entry:
  %this.addr = alloca ptr, align 8
  %min_cap.addr = alloca i32, align 4
  %add = alloca i32, align 4
  store ptr %this, ptr %this.addr, align 8
  store i32 %min_cap, ptr %min_cap.addr, align 4
  %this1 = load ptr, ptr %this.addr, align 8
  %cap = getelementptr inbounds %"class.cvc5::internal::Minisat::vec.5", ptr %this1, i32 0, i32 2
  %0 = load i32, ptr %cap, align 4
  %1 = load i32, ptr %min_cap.addr, align 4
  %cmp = icmp sge i32 %0, %1
  br i1 %cmp, label %if.then, label %if.end

if.then:                                          ; preds = %entry
  br label %if.end18

if.end:                                           ; preds = %entry
  %2 = load i32, ptr %min_cap.addr, align 4
  %cap2 = getelementptr inbounds %"class.cvc5::internal::Minisat::vec.5", ptr %this1, i32 0, i32 2
  %3 = load i32, ptr %cap2, align 4
  %sub = sub nsw i32 %2, %3
  %add3 = add nsw i32 %sub, 1
  %and = and i32 %add3, -2
  %cap4 = getelementptr inbounds %"class.cvc5::internal::Minisat::vec.5", ptr %this1, i32 0, i32 2
  %4 = load i32, ptr %cap4, align 4
  %shr = ashr i32 %4, 1
  %add5 = add nsw i32 %shr, 2
  %and6 = and i32 %add5, -2
  %call = call noundef i32 @_ZN4cvc58internal7Minisat3vecIjE4imaxEii(i32 noundef %and, i32 noundef %and6)
  store i32 %call, ptr %add, align 4
  %5 = load i32, ptr %add, align 4
  %cap7 = getelementptr inbounds %"class.cvc5::internal::Minisat::vec.5", ptr %this1, i32 0, i32 2
  %6 = load i32, ptr %cap7, align 4
  %sub8 = sub nsw i32 2147483647, %6
  %cmp9 = icmp sgt i32 %5, %sub8
  br i1 %cmp9, label %if.then17, label %lor.lhs.false

lor.lhs.false:                                    ; preds = %if.end
  %data = getelementptr inbounds %"class.cvc5::internal::Minisat::vec.5", ptr %this1, i32 0, i32 0
  %7 = load ptr, ptr %data, align 8
  %8 = load i32, ptr %add, align 4
  %cap10 = getelementptr inbounds %"class.cvc5::internal::Minisat::vec.5", ptr %this1, i32 0, i32 2
  %9 = load i32, ptr %cap10, align 4
  %add11 = add nsw i32 %9, %8
  store i32 %add11, ptr %cap10, align 4
  %conv = sext i32 %add11 to i64
  %mul = mul i64 %conv, 4
  %call12 = call ptr @realloc(ptr noundef %7, i64 noundef %mul) #19
  %data13 = getelementptr inbounds %"class.cvc5::internal::Minisat::vec.5", ptr %this1, i32 0, i32 0
  store ptr %call12, ptr %data13, align 8
  %cmp14 = icmp eq ptr %call12, null
  br i1 %cmp14, label %land.lhs.true, label %if.end18

land.lhs.true:                                    ; preds = %lor.lhs.false
  %call15 = call ptr @__errno_location() #20
  %10 = load i32, ptr %call15, align 4
  %cmp16 = icmp eq i32 %10, 12
  br i1 %cmp16, label %if.then17, label %if.end18

if.then17:                                        ; preds = %land.lhs.true, %if.end
  %exception = call ptr @__cxa_allocate_exception(i64 1) #3
  call void @__cxa_throw(ptr %exception, ptr @_ZTIN4cvc58internal7Minisat20OutOfMemoryExceptionE, ptr null) #21
  unreachable

if.end18:                                         ; preds = %land.lhs.true, %lor.lhs.false, %if.then
  ret void
}

; Function Attrs: mustprogress nounwind uwtable
define linkonce_odr hidden noundef nonnull align 4 dereferenceable(4) ptr @_ZN4cvc58internal7Minisat3vecIjEixEi(ptr noundef nonnull align 8 dereferenceable(16) %this, i32 noundef %index) #4 comdat align 2 {
entry:
  %this.addr = alloca ptr, align 8
  %index.addr = alloca i32, align 4
  store ptr %this, ptr %this.addr, align 8
  store i32 %index, ptr %index.addr, align 4
  %this1 = load ptr, ptr %this.addr, align 8
  %data = getelementptr inbounds %"class.cvc5::internal::Minisat::vec.5", ptr %this1, i32 0, i32 0
  %0 = load ptr, ptr %data, align 8
  %1 = load i32, ptr %index.addr, align 4
  %idxprom = sext i32 %1 to i64
  %arrayidx = getelementptr inbounds i32, ptr %0, i64 %idxprom
  ret ptr %arrayidx
}

; Function Attrs: mustprogress nounwind uwtable
define linkonce_odr hidden noundef i32 @_ZN4cvc58internal7Minisat3varENS1_3LitE(i32 %p.coerce) #4 comdat {
entry:
  %p = alloca %"struct.cvc5::internal::Minisat::Lit", align 4
  %coerce.dive = getelementptr inbounds %"struct.cvc5::internal::Minisat::Lit", ptr %p, i32 0, i32 0
  store i32 %p.coerce, ptr %coerce.dive, align 4
  %x = getelementptr inbounds %"struct.cvc5::internal::Minisat::Lit", ptr %p, i32 0, i32 0
  %0 = load i32, ptr %x, align 4
  %shr = ashr i32 %0, 1
  ret i32 %shr
}

; Function Attrs: mustprogress uwtable
define linkonce_odr hidden void @_ZN4cvc58internal7Minisat3vecIjE4pushERKj(ptr noundef nonnull align 8 dereferenceable(16) %this, ptr noundef nonnull align 4 dereferenceable(4) %elem) #5 comdat align 2 {
entry:
  %this.addr = alloca ptr, align 8
  %elem.addr = alloca ptr, align 8
  store ptr %this, ptr %this.addr, align 8
  store ptr %elem, ptr %elem.addr, align 8
  %this1 = load ptr, ptr %this.addr, align 8
  %sz = getelementptr inbounds %"class.cvc5::internal::Minisat::vec.5", ptr %this1, i32 0, i32 1
  %0 = load i32, ptr %sz, align 8
  %cap = getelementptr inbounds %"class.cvc5::internal::Minisat::vec.5", ptr %this1, i32 0, i32 2
  %1 = load i32, ptr %cap, align 4
  %cmp = icmp eq i32 %0, %1
  br i1 %cmp, label %if.then, label %if.end

if.then:                                          ; preds = %entry
  %sz2 = getelementptr inbounds %"class.cvc5::internal::Minisat::vec.5", ptr %this1, i32 0, i32 1
  %2 = load i32, ptr %sz2, align 8
  %add = add nsw i32 %2, 1
  call void @_ZN4cvc58internal7Minisat3vecIjE8capacityEi(ptr noundef nonnull align 8 dereferenceable(16) %this1, i32 noundef %add)
  br label %if.end

if.end:                                           ; preds = %if.then, %entry
  %3 = load ptr, ptr %elem.addr, align 8
  %4 = load i32, ptr %3, align 4
  %data = getelementptr inbounds %"class.cvc5::internal::Minisat::vec.5", ptr %this1, i32 0, i32 0
  %5 = load ptr, ptr %data, align 8
  %sz3 = getelementptr inbounds %"class.cvc5::internal::Minisat::vec.5", ptr %this1, i32 0, i32 1
  %6 = load i32, ptr %sz3, align 8
  %inc = add nsw i32 %6, 1
  store i32 %inc, ptr %sz3, align 8
  %idxprom = sext i32 %6 to i64
  %arrayidx = getelementptr inbounds i32, ptr %5, i64 %idxprom
  store i32 %4, ptr %arrayidx, align 4
  ret void
}

; Function Attrs: mustprogress nounwind uwtable
define linkonce_odr hidden noundef i32 @_ZN4cvc58internal7Minisat5toIntENS1_3LitE(i32 %p.coerce) #4 comdat {
entry:
  %p = alloca %"struct.cvc5::internal::Minisat::Lit", align 4
  %coerce.dive = getelementptr inbounds %"struct.cvc5::internal::Minisat::Lit", ptr %p, i32 0, i32 0
  store i32 %p.coerce, ptr %coerce.dive, align 4
  %x = getelementptr inbounds %"struct.cvc5::internal::Minisat::Lit", ptr %p, i32 0, i32 0
  %0 = load i32, ptr %x, align 4
  ret i32 %0
}

; Function Attrs: mustprogress nounwind uwtable
define linkonce_odr hidden noundef nonnull align 4 dereferenceable(4) ptr @_ZN4cvc58internal7Minisat6ClauseixEi(ptr noundef nonnull align 4 dereferenceable(8) %this, i32 noundef %i) #4 comdat align 2 {
entry:
  %this.addr = alloca ptr, align 8
  %i.addr = alloca i32, align 4
  store ptr %this, ptr %this.addr, align 8
  store i32 %i, ptr %i.addr, align 4
  %this1 = load ptr, ptr %this.addr, align 8
  %data = getelementptr inbounds %"class.cvc5::internal::Minisat::Clause", ptr %this1, i32 0, i32 1
  %0 = load i32, ptr %i.addr, align 4
  %idxprom = sext i32 %0 to i64
  %arrayidx = getelementptr inbounds [0 x %union.anon.273], ptr %data, i64 0, i64 %idxprom
  ret ptr %arrayidx
}

; Function Attrs: mustprogress nounwind uwtable
define linkonce_odr hidden noundef i32 @_ZNK4cvc58internal7Minisat6Clause4sizeEv(ptr noundef nonnull align 4 dereferenceable(8) %this) #4 comdat align 2 {
entry:
  %this.addr = alloca ptr, align 8
  store ptr %this, ptr %this.addr, align 8
  %this1 = load ptr, ptr %this.addr, align 8
  %header = getelementptr inbounds %"class.cvc5::internal::Minisat::Clause", ptr %this1, i32 0, i32 0
  %bf.load = load i64, ptr %header, align 4
  %bf.lshr = lshr i64 %bf.load, 5
  %bf.clear = and i64 %bf.lshr, 134217727
  %bf.cast = trunc i64 %bf.clear to i32
  ret i32 %bf.cast
}

; Function Attrs: mustprogress nounwind uwtable
define linkonce_odr hidden noundef i32 @_ZNK4cvc58internal7Minisat3vecIjE4sizeEv(ptr noundef nonnull align 8 dereferenceable(16) %this) #4 comdat align 2 {
entry:
  %this.addr = alloca ptr, align 8
  store ptr %this, ptr %this.addr, align 8
  %this1 = load ptr, ptr %this.addr, align 8
  %sz = getelementptr inbounds %"class.cvc5::internal::Minisat::vec.5", ptr %this1, i32 0, i32 1
  %0 = load i32, ptr %sz, align 8
  ret i32 %0
}

; Function Attrs: mustprogress uwtable
define internal void @_ZL12mkElimClauseRN4cvc58internal7Minisat3vecIjEEiRNS1_6ClauseE(ptr noundef nonnull align 8 dereferenceable(16) %elimclauses, i32 noundef %v, ptr noundef nonnull align 4 dereferenceable(8) %c) #5 {
entry:
  %elimclauses.addr = alloca ptr, align 8
  %v.addr = alloca i32, align 4
  %c.addr = alloca ptr, align 8
  %first = alloca i32, align 4
  %v_pos = alloca i32, align 4
  %i = alloca i32, align 4
  %ref.tmp = alloca i32, align 4
  %agg.tmp = alloca %"struct.cvc5::internal::Minisat::Lit", align 4
  %agg.tmp4 = alloca %"struct.cvc5::internal::Minisat::Lit", align 4
  %tmp = alloca i32, align 4
  %ref.tmp13 = alloca i32, align 4
  store ptr %elimclauses, ptr %elimclauses.addr, align 8
  store i32 %v, ptr %v.addr, align 4
  store ptr %c, ptr %c.addr, align 8
  %0 = load ptr, ptr %elimclauses.addr, align 8
  %call = call noundef i32 @_ZNK4cvc58internal7Minisat3vecIjE4sizeEv(ptr noundef nonnull align 8 dereferenceable(16) %0)
  store i32 %call, ptr %first, align 4
  store i32 -1, ptr %v_pos, align 4
  store i32 0, ptr %i, align 4
  br label %for.cond

for.cond:                                         ; preds = %for.inc, %entry
  %1 = load i32, ptr %i, align 4
  %2 = load ptr, ptr %c.addr, align 8
  %call1 = call noundef i32 @_ZNK4cvc58internal7Minisat6Clause4sizeEv(ptr noundef nonnull align 4 dereferenceable(8) %2)
  %cmp = icmp slt i32 %1, %call1
  br i1 %cmp, label %for.body, label %for.end

for.body:                                         ; preds = %for.cond
  %3 = load ptr, ptr %elimclauses.addr, align 8
  %4 = load ptr, ptr %c.addr, align 8
  %5 = load i32, ptr %i, align 4
  %call2 = call noundef nonnull align 4 dereferenceable(4) ptr @_ZN4cvc58internal7Minisat6ClauseixEi(ptr noundef nonnull align 4 dereferenceable(8) %4, i32 noundef %5)
  call void @llvm.memcpy.p0.p0.i64(ptr align 4 %agg.tmp, ptr align 4 %call2, i64 4, i1 false)
  %coerce.dive = getelementptr inbounds %"struct.cvc5::internal::Minisat::Lit", ptr %agg.tmp, i32 0, i32 0
  %6 = load i32, ptr %coerce.dive, align 4
  %call3 = call noundef i32 @_ZN4cvc58internal7Minisat5toIntENS1_3LitE(i32 %6)
  store i32 %call3, ptr %ref.tmp, align 4
  call void @_ZN4cvc58internal7Minisat3vecIjE4pushERKj(ptr noundef nonnull align 8 dereferenceable(16) %3, ptr noundef nonnull align 4 dereferenceable(4) %ref.tmp)
  %7 = load ptr, ptr %c.addr, align 8
  %8 = load i32, ptr %i, align 4
  %call5 = call noundef nonnull align 4 dereferenceable(4) ptr @_ZN4cvc58internal7Minisat6ClauseixEi(ptr noundef nonnull align 4 dereferenceable(8) %7, i32 noundef %8)
  call void @llvm.memcpy.p0.p0.i64(ptr align 4 %agg.tmp4, ptr align 4 %call5, i64 4, i1 false)
  %coerce.dive6 = getelementptr inbounds %"struct.cvc5::internal::Minisat::Lit", ptr %agg.tmp4, i32 0, i32 0
  %9 = load i32, ptr %coerce.dive6, align 4
  %call7 = call noundef i32 @_ZN4cvc58internal7Minisat3varENS1_3LitE(i32 %9)
  %10 = load i32, ptr %v.addr, align 4
  %cmp8 = icmp eq i32 %call7, %10
  br i1 %cmp8, label %if.then, label %if.end

if.then:                                          ; preds = %for.body
  %11 = load i32, ptr %i, align 4
  %12 = load i32, ptr %first, align 4
  %add = add nsw i32 %11, %12
  store i32 %add, ptr %v_pos, align 4
  br label %if.end

if.end:                                           ; preds = %if.then, %for.body
  br label %for.inc

for.inc:                                          ; preds = %if.end
  %13 = load i32, ptr %i, align 4
  %inc = add nsw i32 %13, 1
  store i32 %inc, ptr %i, align 4
  br label %for.cond, !llvm.loop !49

for.end:                                          ; preds = %for.cond
  %14 = load ptr, ptr %elimclauses.addr, align 8
  %15 = load i32, ptr %v_pos, align 4
  %call9 = call noundef nonnull align 4 dereferenceable(4) ptr @_ZN4cvc58internal7Minisat3vecIjEixEi(ptr noundef nonnull align 8 dereferenceable(16) %14, i32 noundef %15)
  %16 = load i32, ptr %call9, align 4
  store i32 %16, ptr %tmp, align 4
  %17 = load ptr, ptr %elimclauses.addr, align 8
  %18 = load i32, ptr %first, align 4
  %call10 = call noundef nonnull align 4 dereferenceable(4) ptr @_ZN4cvc58internal7Minisat3vecIjEixEi(ptr noundef nonnull align 8 dereferenceable(16) %17, i32 noundef %18)
  %19 = load i32, ptr %call10, align 4
  %20 = load ptr, ptr %elimclauses.addr, align 8
  %21 = load i32, ptr %v_pos, align 4
  %call11 = call noundef nonnull align 4 dereferenceable(4) ptr @_ZN4cvc58internal7Minisat3vecIjEixEi(ptr noundef nonnull align 8 dereferenceable(16) %20, i32 noundef %21)
  store i32 %19, ptr %call11, align 4
  %22 = load i32, ptr %tmp, align 4
  %23 = load ptr, ptr %elimclauses.addr, align 8
  %24 = load i32, ptr %first, align 4
  %call12 = call noundef nonnull align 4 dereferenceable(4) ptr @_ZN4cvc58internal7Minisat3vecIjEixEi(ptr noundef nonnull align 8 dereferenceable(16) %23, i32 noundef %24)
  store i32 %22, ptr %call12, align 4
  %25 = load ptr, ptr %elimclauses.addr, align 8
  %26 = load ptr, ptr %c.addr, align 8
  %call14 = call noundef i32 @_ZNK4cvc58internal7Minisat6Clause4sizeEv(ptr noundef nonnull align 4 dereferenceable(8) %26)
  store i32 %call14, ptr %ref.tmp13, align 4
  call void @_ZN4cvc58internal7Minisat3vecIjE4pushERKj(ptr noundef nonnull align 8 dereferenceable(16) %25, ptr noundef nonnull align 4 dereferenceable(4) %ref.tmp13)
  ret void
}