; Function Attrs: mustprogress uwtable
define internal fastcc void @_ZL12mkElimClauseRN4cvc58internal7Minisat3vecIjEEiRNS1_6ClauseE(ptr nocapture noundef nonnull align 8 dereferenceable(16) %elimclauses, i32 noundef %v, ptr nocapture noundef nonnull readonly align 4 dereferenceable(8) %c) unnamed_addr #4 {
entry:
  %sz.i = getelementptr inbounds i8, ptr %elimclauses, i64 8
  %0 = load i32, ptr %sz.i, align 8
  %bf.load.i59 = load i64, ptr %c, align 4
  %1 = and i64 %bf.load.i59, 4294967264
  %cmp60.not = icmp eq i64 %1, 0
  br i1 %cmp60.not, label %for.end, label %for.body.lr.ph

for.body.lr.ph:                                   ; preds = %entry
  %data.i = getelementptr inbounds i8, ptr %c, i64 8
  %cap.i = getelementptr inbounds i8, ptr %elimclauses, i64 12
  br label %for.body

for.body:                                         ; preds = %for.body.lr.ph, %_ZN4cvc58internal7Minisat3vecIjE4pushERKj.exit
  %indvars.iv = phi i64 [ 0, %for.body.lr.ph ], [ %indvars.iv.next, %_ZN4cvc58internal7Minisat3vecIjE4pushERKj.exit ]
  %v_pos.062 = phi i32 [ -1, %for.body.lr.ph ], [ %spec.select, %_ZN4cvc58internal7Minisat3vecIjE4pushERKj.exit ]
  %arrayidx.i = getelementptr inbounds [0 x %union.anon.273], ptr %data.i, i64 0, i64 %indvars.iv
  %agg.tmp.sroa.0.0.copyload = load i32, ptr %arrayidx.i, align 4
  %2 = load i32, ptr %sz.i, align 8
  %3 = load i32, ptr %cap.i, align 4
  %cmp.i = icmp eq i32 %2, %3
  br i1 %cmp.i, label %if.end.i.i, label %entry.if.end_crit_edge.i

entry.if.end_crit_edge.i:                         ; preds = %for.body
  %.pre.i = load ptr, ptr %elimclauses, align 8
  br label %_ZN4cvc58internal7Minisat3vecIjE4pushERKj.exit

if.end.i.i:                                       ; preds = %for.body
  %shr.i.i = ashr i32 %2, 1
  %4 = and i32 %shr.i.i, -2
  %5 = tail call i32 @llvm.smax.i32(i32 %4, i32 0)
  %add.i.i.i = add nuw nsw i32 %5, 2
  %sub8.i.i = sub nsw i32 2147483647, %2
  %cmp9.i.i = icmp ugt i32 %add.i.i.i, %sub8.i.i
  br i1 %cmp9.i.i, label %if.then17.i.i, label %lor.lhs.false.i.i

lor.lhs.false.i.i:                                ; preds = %if.end.i.i
  %6 = load ptr, ptr %elimclauses, align 8
  %add11.i.i = add nsw i32 %add.i.i.i, %2
  store i32 %add11.i.i, ptr %cap.i, align 4
  %conv.i.i = sext i32 %add11.i.i to i64
  %mul.i.i = shl nsw i64 %conv.i.i, 2
  %call12.i.i = tail call ptr @realloc(ptr noundef %6, i64 noundef %mul.i.i) #27
  store ptr %call12.i.i, ptr %elimclauses, align 8
  %cmp14.i.i = icmp eq ptr %call12.i.i, null
  br i1 %cmp14.i.i, label %land.lhs.true.i.i, label %lor.lhs.false.i.i._ZN4cvc58internal7Minisat3vecIjE4pushERKj.exit_crit_edge

lor.lhs.false.i.i._ZN4cvc58internal7Minisat3vecIjE4pushERKj.exit_crit_edge: ; preds = %lor.lhs.false.i.i
  %.pre = load i32, ptr %sz.i, align 8
  br label %_ZN4cvc58internal7Minisat3vecIjE4pushERKj.exit

land.lhs.true.i.i:                                ; preds = %lor.lhs.false.i.i
  %call15.i.i = tail call ptr @__errno_location() #24
  %7 = load i32, ptr %call15.i.i, align 4
  %cmp16.i.i = icmp eq i32 %7, 12
  tail call void @llvm.assume(i1 %cmp16.i.i)
  br label %if.then17.i.i

if.then17.i.i:                                    ; preds = %if.end.i.i, %land.lhs.true.i.i
  %exception.i.i = tail call ptr @__cxa_allocate_exception(i64 1) #25
  tail call void @__cxa_throw(ptr %exception.i.i, ptr nonnull @_ZTIN4cvc58internal7Minisat20OutOfMemoryExceptionE, ptr null) #26
  unreachable

_ZN4cvc58internal7Minisat3vecIjE4pushERKj.exit:   ; preds = %lor.lhs.false.i.i._ZN4cvc58internal7Minisat3vecIjE4pushERKj.exit_crit_edge, %entry.if.end_crit_edge.i
  %8 = phi i32 [ %2, %entry.if.end_crit_edge.i ], [ %.pre, %lor.lhs.false.i.i._ZN4cvc58internal7Minisat3vecIjE4pushERKj.exit_crit_edge ]
  %9 = phi ptr [ %.pre.i, %entry.if.end_crit_edge.i ], [ %call12.i.i, %lor.lhs.false.i.i._ZN4cvc58internal7Minisat3vecIjE4pushERKj.exit_crit_edge ]
  %inc.i = add nsw i32 %8, 1
  store i32 %inc.i, ptr %sz.i, align 8
  %idxprom.i18 = sext i32 %8 to i64
  %arrayidx.i19 = getelementptr inbounds i32, ptr %9, i64 %idxprom.i18
  store i32 %agg.tmp.sroa.0.0.copyload, ptr %arrayidx.i19, align 4
  %agg.tmp4.sroa.0.0.copyload = load i32, ptr %arrayidx.i, align 4
  %shr.i = ashr i32 %agg.tmp4.sroa.0.0.copyload, 1
  %cmp8 = icmp eq i32 %shr.i, %v
  %10 = trunc i64 %indvars.iv to i32
  %11 = add i32 %0, %10
  %spec.select = select i1 %cmp8, i32 %11, i32 %v_pos.062
  %indvars.iv.next = add nuw nsw i64 %indvars.iv, 1
  %bf.load.i = load i64, ptr %c, align 4
  %12 = lshr i64 %bf.load.i, 5
  %13 = and i64 %12, 134217727
  %cmp = icmp ult i64 %indvars.iv.next, %13
  br i1 %cmp, label %for.body, label %for.end.loopexit, !llvm.loop !52

for.end.loopexit:                                 ; preds = %_ZN4cvc58internal7Minisat3vecIjE4pushERKj.exit
  %14 = sext i32 %spec.select to i64
  br label %for.end

for.end:                                          ; preds = %entry, %for.end.loopexit
  %v_pos.0.lcssa = phi i64 [ %14, %for.end.loopexit ], [ -1, %entry ]
  %idxprom.i25.pre-phi = sext i32 %0 to i64
  %15 = load ptr, ptr %elimclauses, align 8
  %arrayidx.i24 = getelementptr inbounds i32, ptr %15, i64 %v_pos.0.lcssa
  %16 = load i32, ptr %arrayidx.i24, align 4
  %arrayidx.i26 = getelementptr inbounds i32, ptr %15, i64 %idxprom.i25.pre-phi
  %17 = load i32, ptr %arrayidx.i26, align 4
  store i32 %17, ptr %arrayidx.i24, align 4
  %18 = load ptr, ptr %elimclauses, align 8
  %arrayidx.i30 = getelementptr inbounds i32, ptr %18, i64 %idxprom.i25.pre-phi
  store i32 %16, ptr %arrayidx.i30, align 4
  %bf.load.i31 = load i64, ptr %c, align 4
  %19 = load i32, ptr %sz.i, align 8
  %cap.i33 = getelementptr inbounds i8, ptr %elimclauses, i64 12
  %20 = load i32, ptr %cap.i33, align 4
  %cmp.i34 = icmp eq i32 %19, %20
  br i1 %cmp.i34, label %if.end.i.i40, label %entry.if.end_crit_edge.i35

entry.if.end_crit_edge.i35:                       ; preds = %for.end
  %.pre.i36 = load ptr, ptr %elimclauses, align 8
  br label %_ZN4cvc58internal7Minisat3vecIjE4pushERKj.exit56

if.end.i.i40:                                     ; preds = %for.end
  %shr.i.i41 = ashr i32 %19, 1
  %21 = and i32 %shr.i.i41, -2
  %22 = tail call i32 @llvm.smax.i32(i32 %21, i32 0)
  %add.i.i.i42 = add nuw nsw i32 %22, 2
  %sub8.i.i43 = sub nsw i32 2147483647, %19
  %cmp9.i.i44 = icmp ugt i32 %add.i.i.i42, %sub8.i.i43
  br i1 %cmp9.i.i44, label %if.then17.i.i54, label %lor.lhs.false.i.i45

lor.lhs.false.i.i45:                              ; preds = %if.end.i.i40
  %23 = load ptr, ptr %elimclauses, align 8
  %add11.i.i46 = add nsw i32 %add.i.i.i42, %19
  store i32 %add11.i.i46, ptr %cap.i33, align 4
  %conv.i.i47 = sext i32 %add11.i.i46 to i64
  %mul.i.i48 = shl nsw i64 %conv.i.i47, 2
  %call12.i.i49 = tail call ptr @realloc(ptr noundef %23, i64 noundef %mul.i.i48) #27
  store ptr %call12.i.i49, ptr %elimclauses, align 8
  %cmp14.i.i50 = icmp eq ptr %call12.i.i49, null
  br i1 %cmp14.i.i50, label %land.lhs.true.i.i51, label %lor.lhs.false.i.i45._ZN4cvc58internal7Minisat3vecIjE4pushERKj.exit56_crit_edge

lor.lhs.false.i.i45._ZN4cvc58internal7Minisat3vecIjE4pushERKj.exit56_crit_edge: ; preds = %lor.lhs.false.i.i45
  %.pre65 = load i32, ptr %sz.i, align 8
  br label %_ZN4cvc58internal7Minisat3vecIjE4pushERKj.exit56

land.lhs.true.i.i51:                              ; preds = %lor.lhs.false.i.i45
  %call15.i.i52 = tail call ptr @__errno_location() #24
  %24 = load i32, ptr %call15.i.i52, align 4
  %cmp16.i.i53 = icmp eq i32 %24, 12
  tail call void @llvm.assume(i1 %cmp16.i.i53)
  br label %if.then17.i.i54

if.then17.i.i54:                                  ; preds = %land.lhs.true.i.i51, %if.end.i.i40
  %exception.i.i55 = tail call ptr @__cxa_allocate_exception(i64 1) #25
  tail call void @__cxa_throw(ptr %exception.i.i55, ptr nonnull @_ZTIN4cvc58internal7Minisat20OutOfMemoryExceptionE, ptr null) #26
  unreachable

_ZN4cvc58internal7Minisat3vecIjE4pushERKj.exit56: ; preds = %lor.lhs.false.i.i45._ZN4cvc58internal7Minisat3vecIjE4pushERKj.exit56_crit_edge, %entry.if.end_crit_edge.i35
  %25 = phi i32 [ %19, %entry.if.end_crit_edge.i35 ], [ %.pre65, %lor.lhs.false.i.i45._ZN4cvc58internal7Minisat3vecIjE4pushERKj.exit56_crit_edge ]
  %26 = phi ptr [ %.pre.i36, %entry.if.end_crit_edge.i35 ], [ %call12.i.i49, %lor.lhs.false.i.i45._ZN4cvc58internal7Minisat3vecIjE4pushERKj.exit56_crit_edge ]
  %27 = trunc i64 %bf.load.i31 to i32
  %28 = lshr i32 %27, 5
  %inc.i37 = add nsw i32 %25, 1
  store i32 %inc.i37, ptr %sz.i, align 8
  %idxprom.i38 = sext i32 %25 to i64
  %arrayidx.i39 = getelementptr inbounds i32, ptr %26, i64 %idxprom.i38
  store i32 %28, ptr %arrayidx.i39, align 4
  ret void
}